; Function Attrs: nounwind uwtable
define hidden void @SDL_PrivateGamepadRemoved(i32 noundef %0) local_unnamed_addr #0 {
  %2 = alloca %union.SDL_Event, align 8
  %3 = alloca %union.SDL_Event, align 8
  %4 = alloca %union.SDL_Event, align 8
  call void @llvm.lifetime.start.p0(i64 128, ptr nonnull %4) #10
  tail call void @SDL_AssertJoysticksLocked() #10
  %.b5 = load i1, ptr @SDL_gamepads_initialized, align 1
  br i1 %.b5, label %.preheader, label %55

.preheader:                                       ; preds = %1
  %.08 = load ptr, ptr @SDL_gamepads, align 8
  %.not9 = icmp eq ptr %.08, null
  br i1 %.not9, label %RecenterGamepad.exit, label %.lr.ph

.lr.ph:                                           ; preds = %.preheader, %50
  %.010 = phi ptr [ %.0, %50 ], [ %.08, %.preheader ]
  %5 = load ptr, ptr %.010, align 8
  %6 = load i32, ptr %5, align 8
  %7 = icmp eq i32 %6, %0
  br i1 %7, label %8, label %50

8:                                                ; preds = %.lr.ph
  %9 = tail call i64 @SDL_GetTicksNS_REAL() #10
  %10 = getelementptr inbounds nuw i8, ptr %.010, i64 72
  %11 = getelementptr inbounds nuw i8, ptr %3, i64 8
  %12 = getelementptr inbounds nuw i8, ptr %3, i64 16
  %13 = getelementptr inbounds nuw i8, ptr %3, i64 20
  %14 = getelementptr inbounds nuw i8, ptr %3, i64 21
  br label %19

.preheader.i:                                     ; preds = %38
  %15 = getelementptr inbounds nuw i8, ptr %2, i64 8
  %16 = getelementptr inbounds nuw i8, ptr %2, i64 16
  %17 = getelementptr inbounds nuw i8, ptr %2, i64 20
  %18 = getelementptr inbounds nuw i8, ptr %2, i64 24
  br label %40

19:                                               ; preds = %38, %8
  %.015.i = phi i32 [ 0, %8 ], [ %39, %38 ]
  %20 = call zeroext i1 @SDL_GetGamepadButton_REAL(ptr noundef nonnull %.010, i32 noundef %.015.i)
  br i1 %20, label %21, label %38

21:                                               ; preds = %19
  call void @llvm.lifetime.start.p0(i64 128, ptr nonnull %3) #10
  call void @SDL_AssertJoysticksLocked() #10
  store i32 1618, ptr %3, align 8
  %22 = icmp eq i32 %.015.i, 5
  br i1 %22, label %23, label %.critedge.i.i

23:                                               ; preds = %21
  %24 = call i64 @SDL_GetTicks_REAL() #10
  %25 = load i64, ptr %10, align 8
  %26 = add i64 %25, 250
  %27 = icmp ult i64 %24, %26
  %28 = load ptr, ptr %.010, align 8
  %29 = getelementptr inbounds nuw i8, ptr %28, i64 240
  br i1 %27, label %30, label %31

30:                                               ; preds = %23
  store i8 1, ptr %29, align 8
  br label %SDL_SendGamepadButton.exit.i

31:                                               ; preds = %23
  store i8 0, ptr %29, align 8
  br label %.critedge.i.i

.critedge.i.i:                                    ; preds = %31, %21
  %32 = call zeroext i1 @SDL_EventEnabled_REAL(i32 noundef 1618) #10
  br i1 %32, label %33, label %SDL_SendGamepadButton.exit.i

33:                                               ; preds = %.critedge.i.i
  store i64 %9, ptr %11, align 8
  %34 = load ptr, ptr %.010, align 8
  %35 = load i32, ptr %34, align 8
  store i32 %35, ptr %12, align 8
  %36 = trunc nuw nsw i32 %.015.i to i8
  store i8 %36, ptr %13, align 4
  store i8 0, ptr %14, align 1
  %37 = call zeroext i1 @SDL_PushEvent_REAL(ptr noundef nonnull %3) #10
  br label %SDL_SendGamepadButton.exit.i

SDL_SendGamepadButton.exit.i:                     ; preds = %33, %.critedge.i.i, %30
  call void @llvm.lifetime.end.p0(i64 128, ptr nonnull %3) #10
  br label %38

38:                                               ; preds = %SDL_SendGamepadButton.exit.i, %19
  %39 = add nuw nsw i32 %.015.i, 1
  %exitcond.not.i = icmp eq i32 %39, 26
  br i1 %exitcond.not.i, label %.preheader.i, label %19, !llvm.loop !3

40:                                               ; preds = %SDL_SendGamepadAxis.exit.i, %.preheader.i
  %.117.i = phi i32 [ 0, %.preheader.i ], [ %49, %SDL_SendGamepadAxis.exit.i ]
  %41 = call signext i16 @SDL_GetGamepadAxis_REAL(ptr noundef nonnull %.010, i32 noundef %.117.i)
  %.not.i = icmp eq i16 %41, 0
  br i1 %.not.i, label %SDL_SendGamepadAxis.exit.i, label %42

42:                                               ; preds = %40
  call void @SDL_AssertJoysticksLocked() #10
  %43 = call zeroext i1 @SDL_EventEnabled_REAL(i32 noundef 1616) #10
  br i1 %43, label %44, label %SDL_SendGamepadAxis.exit.i

44:                                               ; preds = %42
  call void @llvm.lifetime.start.p0(i64 128, ptr nonnull %2) #10
  store i32 1616, ptr %2, align 8
  store i64 %9, ptr %15, align 8
  %45 = load ptr, ptr %.010, align 8
  %46 = load i32, ptr %45, align 8
  store i32 %46, ptr %16, align 8
  %47 = trunc nuw nsw i32 %.117.i to i8
  store i8 %47, ptr %17, align 4
  store i16 0, ptr %18, align 8
  %48 = call zeroext i1 @SDL_PushEvent_REAL(ptr noundef nonnull %2) #10
  call void @llvm.lifetime.end.p0(i64 128, ptr nonnull %2) #10
  br label %SDL_SendGamepadAxis.exit.i

SDL_SendGamepadAxis.exit.i:                       ; preds = %44, %42, %40
  %49 = add nuw nsw i32 %.117.i, 1
  %exitcond18.not.i = icmp eq i32 %49, 6
  br i1 %exitcond18.not.i, label %RecenterGamepad.exit, label %40, !llvm.loop !5

50:                                               ; preds = %.lr.ph
  %51 = getelementptr inbounds nuw i8, ptr %.010, i64 80
  %.0 = load ptr, ptr %51, align 8
  %.not = icmp eq ptr %.0, null
  br i1 %.not, label %RecenterGamepad.exit, label %.lr.ph, !llvm.loop !6

RecenterGamepad.exit:                             ; preds = %50, %SDL_SendGamepadAxis.exit.i, %.preheader
  store i32 1620, ptr %4, align 8
  %52 = getelementptr inbounds nuw i8, ptr %4, i64 8
  store i64 0, ptr %52, align 8
  %53 = getelementptr inbounds nuw i8, ptr %4, i64 16
  store i32 %0, ptr %53, align 8
  %54 = call zeroext i1 @SDL_PushEvent_REAL(ptr noundef nonnull %4) #10
  br label %55

55:                                               ; preds = %1, %RecenterGamepad.exit
  call void @llvm.lifetime.end.p0(i64 128, ptr nonnull %4) #10
  ret void
}